   1               		.file	"usb_rawhid_debug.c"
   2               	__SREG__ = 0x3f
   3               	__SP_H__ = 0x3e
   4               	__SP_L__ = 0x3d
   5               	__CCP__  = 0x34
   6               	__tmp_reg__ = 0
   7               	__zero_reg__ = 1
  15               	.Ltext0:
  16               		.section	.text.usb_init,"ax",@progbits
  17               	.global	usb_init
  19               	usb_init:
  20               	.LFB2:
  21               	.LSM0:
  22               	/* prologue: function */
  23               	/* frame size = 0 */
  24               	.LSM1:
  25 0000 81E8      		ldi r24,lo8(-127)
  26 0002 8093 D700 		sts 215,r24
  27               	.LSM2:
  28 0006 80EA      		ldi r24,lo8(-96)
  29 0008 8093 D800 		sts 216,r24
  30               	.LSM3:
  31 000c 86E1      		ldi r24,lo8(22)
  32 000e 89BD      		out 73-32,r24
  33               	.L2:
  34               	.LSM4:
  35 0010 09B4      		in __tmp_reg__,73-32
  36 0012 00FE      		sbrs __tmp_reg__,0
  37 0014 00C0      		rjmp .L2
  38               	.LSM5:
  39 0016 80E9      		ldi r24,lo8(-112)
  40 0018 8093 D800 		sts 216,r24
  41               	.LSM6:
  42 001c 1092 E000 		sts 224,__zero_reg__
  43               	.LSM7:
  44 0020 1092 0000 		sts usb_configuration,__zero_reg__
  45               	.LSM8:
  46 0024 8CE0      		ldi r24,lo8(12)
  47 0026 8093 E200 		sts 226,r24
  48               	.LSM9:
  49               	/* #APP */
  50               	 ;  307 "usb_rawhid_debug.c" 1
  51 002a 7894      		sei
  52               	 ;  0 "" 2
  53               	/* epilogue start */
  54               	.LSM10:
  55               	/* #NOAPP */
  56 002c 0895      		ret
  57               	.LFE2:
  59               		.section	.text.usb_configured,"ax",@progbits
  60               	.global	usb_configured
  62               	usb_configured:
  63               	.LFB3:
  64               	.LSM11:
  65               	/* prologue: function */
  66               	/* frame size = 0 */
  67               	.LSM12:
  68 0000 8091 0000 		lds r24,usb_configuration
  69               	/* epilogue start */
  70               	.LSM13:
  71 0004 0895      		ret
  72               	.LFE3:
  74               		.section	.text.usb_rawhid_recv,"ax",@progbits
  75               	.global	usb_rawhid_recv
  77               	usb_rawhid_recv:
  78               	.LFB4:
  79               	.LSM14:
  80               	.LVL0:
  81               	/* prologue: function */
  82               	/* frame size = 0 */
  83 0000 DC01      		movw r26,r24
  84               	.LSM15:
  85 0002 8091 0000 		lds r24,usb_configuration
  86               	.LVL1:
  87 0006 8823      		tst r24
  88 0008 01F4      		brne .+2
  89 000a 00C0      		rjmp .L8
  90               	.LSM16:
  91 000c 2FB7      		in r18,__SREG__
  92               	.LVL2:
  93               	.LSM17:
  94               	/* #APP */
  95               	 ;  326 "usb_rawhid_debug.c" 1
  96 000e F894      		cli
  97               	 ;  0 "" 2
  98               	.LSM18:
  99               	/* #NOAPP */
 100 0010 6093 0000 		sts rx_timeout_count,r22
 101               	.LSM19:
 102 0014 82E0      		ldi r24,lo8(2)
 103 0016 8093 E900 		sts 233,r24
 104               	.LSM20:
 105 001a 92E0      		ldi r25,lo8(2)
 106               	.L12:
 107               	.LSM21:
 108 001c 8091 E800 		lds r24,232
 109 0020 85FD      		sbrc r24,5
 110 0022 00C0      		rjmp .L9
 111               	.LSM22:
 112 0024 2FBF      		out __SREG__,r18
 113               	.LSM23:
 114 0026 8091 0000 		lds r24,rx_timeout_count
 115 002a 8823      		tst r24
 116 002c 01F4      		brne .+2
 117 002e 00C0      		rjmp .L11
 118               	.LSM24:
 119 0030 8091 0000 		lds r24,usb_configuration
 120 0034 8823      		tst r24
 121 0036 01F4      		brne .+2
 122 0038 00C0      		rjmp .L8
 123               	.LSM25:
 124 003a 2FB7      		in r18,__SREG__
 125               	.LSM26:
 126               	/* #APP */
 127               	 ;  336 "usb_rawhid_debug.c" 1
 128 003c F894      		cli
 129               	 ;  0 "" 2
 130               	.LSM27:
 131               	/* #NOAPP */
 132 003e 9093 E900 		sts 233,r25
 133 0042 00C0      		rjmp .L12
 134               	.L9:
 135               	.LSM28:
 136 0044 8091 F100 		lds r24,241
 137 0048 FD01      		movw r30,r26
 138 004a 8193      		st Z+,r24
 139               	.LSM29:
 140 004c 8091 F100 		lds r24,241
 141 0050 1196      		adiw r26,1
 142 0052 8C93      		st X,r24
 143 0054 DF01      		movw r26,r30
 144 0056 1196      		adiw r26,1
 145               	.LSM30:
 146 0058 8091 F100 		lds r24,241
 147 005c 8183      		std Z+1,r24
 148 005e FD01      		movw r30,r26
 149 0060 3196      		adiw r30,1
 150               	.LVL3:
 151               	.LSM31:
 152 0062 8091 F100 		lds r24,241
 153 0066 1196      		adiw r26,1
 154 0068 8C93      		st X,r24
 155 006a DF01      		movw r26,r30
 156 006c 1196      		adiw r26,1
 157               	.LVL4:
 158               	.LSM32:
 159 006e 8091 F100 		lds r24,241
 160 0072 8183      		std Z+1,r24
 161 0074 FD01      		movw r30,r26
 162 0076 3196      		adiw r30,1
 163               	.LVL5:
 164               	.LSM33:
 165 0078 8091 F100 		lds r24,241
 166 007c 1196      		adiw r26,1
 167 007e 8C93      		st X,r24
 168 0080 DF01      		movw r26,r30
 169 0082 1196      		adiw r26,1
 170               	.LVL6:
 171               	.LSM34:
 172 0084 8091 F100 		lds r24,241
 173 0088 8183      		std Z+1,r24
 174 008a FD01      		movw r30,r26
 175 008c 3196      		adiw r30,1
 176               	.LVL7:
 177               	.LSM35:
 178 008e 8091 F100 		lds r24,241
 179 0092 1196      		adiw r26,1
 180 0094 8C93      		st X,r24
 181 0096 DF01      		movw r26,r30
 182 0098 1196      		adiw r26,1
 183               	.LVL8:
 184               	.LSM36:
 185 009a 8091 F100 		lds r24,241
 186 009e 8183      		std Z+1,r24
 187 00a0 FD01      		movw r30,r26
 188 00a2 3196      		adiw r30,1
 189               	.LVL9:
 190               	.LSM37:
 191 00a4 8091 F100 		lds r24,241
 192 00a8 1196      		adiw r26,1
 193 00aa 8C93      		st X,r24
 194 00ac DF01      		movw r26,r30
 195 00ae 1196      		adiw r26,1
 196               	.LVL10:
 197               	.LSM38:
 198 00b0 8091 F100 		lds r24,241
 199 00b4 8183      		std Z+1,r24
 200 00b6 FD01      		movw r30,r26
 201 00b8 3196      		adiw r30,1
 202               	.LVL11:
 203               	.LSM39:
 204 00ba 8091 F100 		lds r24,241
 205 00be 1196      		adiw r26,1
 206 00c0 8C93      		st X,r24
 207 00c2 DF01      		movw r26,r30
 208 00c4 1196      		adiw r26,1
 209               	.LVL12:
 210               	.LSM40:
 211 00c6 8091 F100 		lds r24,241
 212 00ca 8183      		std Z+1,r24
 213 00cc FD01      		movw r30,r26
 214 00ce 3196      		adiw r30,1
 215               	.LVL13:
 216               	.LSM41:
 217 00d0 8091 F100 		lds r24,241
 218 00d4 1196      		adiw r26,1
 219 00d6 8C93      		st X,r24
 220 00d8 DF01      		movw r26,r30
 221 00da 1196      		adiw r26,1
 222               	.LVL14:
 223               	.LSM42:
 224 00dc 8091 F100 		lds r24,241
 225 00e0 8183      		std Z+1,r24
 226 00e2 FD01      		movw r30,r26
 227 00e4 3196      		adiw r30,1
 228               	.LVL15:
 229               	.LSM43:
 230 00e6 8091 F100 		lds r24,241
 231 00ea 1196      		adiw r26,1
 232 00ec 8C93      		st X,r24
 233 00ee DF01      		movw r26,r30
 234 00f0 1196      		adiw r26,1
 235               	.LVL16:
 236               	.LSM44:
 237 00f2 8091 F100 		lds r24,241
 238 00f6 8183      		std Z+1,r24
 239 00f8 FD01      		movw r30,r26
 240 00fa 3196      		adiw r30,1
 241               	.LVL17:
 242               	.LSM45:
 243 00fc 8091 F100 		lds r24,241
 244 0100 1196      		adiw r26,1
 245 0102 8C93      		st X,r24
 246 0104 DF01      		movw r26,r30
 247 0106 1196      		adiw r26,1
 248               	.LVL18:
 249               	.LSM46:
 250 0108 8091 F100 		lds r24,241
 251 010c 8183      		std Z+1,r24
 252 010e FD01      		movw r30,r26
 253 0110 3196      		adiw r30,1
 254               	.LVL19:
 255               	.LSM47:
 256 0112 8091 F100 		lds r24,241
 257 0116 1196      		adiw r26,1
 258 0118 8C93      		st X,r24
 259 011a DF01      		movw r26,r30
 260 011c 1196      		adiw r26,1
 261               	.LVL20:
 262               	.LSM48:
 263 011e 8091 F100 		lds r24,241
 264 0122 8183      		std Z+1,r24
 265 0124 FD01      		movw r30,r26
 266 0126 3196      		adiw r30,1
 267               	.LVL21:
 268               	.LSM49:
 269 0128 8091 F100 		lds r24,241
 270 012c 1196      		adiw r26,1
 271 012e 8C93      		st X,r24
 272 0130 DF01      		movw r26,r30
 273 0132 1196      		adiw r26,1
 274               	.LVL22:
 275               	.LSM50:
 276 0134 8091 F100 		lds r24,241
 277 0138 8183      		std Z+1,r24
 278 013a FD01      		movw r30,r26
 279 013c 3196      		adiw r30,1
 280               	.LVL23:
 281               	.LSM51:
 282 013e 8091 F100 		lds r24,241
 283 0142 1196      		adiw r26,1
 284 0144 8C93      		st X,r24
 285 0146 DF01      		movw r26,r30
 286 0148 1196      		adiw r26,1
 287               	.LVL24:
 288               	.LSM52:
 289 014a 8091 F100 		lds r24,241
 290 014e 8183      		std Z+1,r24
 291 0150 FD01      		movw r30,r26
 292 0152 3196      		adiw r30,1
 293               	.LVL25:
 294               	.LSM53:
 295 0154 8091 F100 		lds r24,241
 296 0158 1196      		adiw r26,1
 297 015a 8C93      		st X,r24
 298 015c DF01      		movw r26,r30
 299 015e 1196      		adiw r26,1
 300               	.LVL26:
 301               	.LSM54:
 302 0160 8091 F100 		lds r24,241
 303 0164 8183      		std Z+1,r24
 304 0166 FD01      		movw r30,r26
 305 0168 3196      		adiw r30,1
 306               	.LVL27:
 307               	.LSM55:
 308 016a 8091 F100 		lds r24,241
 309 016e 1196      		adiw r26,1
 310 0170 8C93      		st X,r24
 311 0172 DF01      		movw r26,r30
 312 0174 1196      		adiw r26,1
 313               	.LVL28:
 314               	.LSM56:
 315 0176 8091 F100 		lds r24,241
 316 017a 8183      		std Z+1,r24
 317 017c FD01      		movw r30,r26
 318 017e 3196      		adiw r30,1
 319               	.LVL29:
 320               	.LSM57:
 321 0180 8091 F100 		lds r24,241
 322 0184 1196      		adiw r26,1
 323 0186 8C93      		st X,r24
 324 0188 DF01      		movw r26,r30
 325 018a 1196      		adiw r26,1
 326               	.LVL30:
 327               	.LSM58:
 328 018c 8091 F100 		lds r24,241
 329 0190 8183      		std Z+1,r24
 330 0192 FD01      		movw r30,r26
 331 0194 3196      		adiw r30,1
 332               	.LVL31:
 333               	.LSM59:
 334 0196 8091 F100 		lds r24,241
 335 019a 1196      		adiw r26,1
 336 019c 8C93      		st X,r24
 337 019e DF01      		movw r26,r30
 338 01a0 1196      		adiw r26,1
 339               	.LVL32:
 340               	.LSM60:
 341 01a2 8091 F100 		lds r24,241
 342 01a6 8183      		std Z+1,r24
 343 01a8 FD01      		movw r30,r26
 344 01aa 3196      		adiw r30,1
 345               	.LVL33:
 346               	.LSM61:
 347 01ac 8091 F100 		lds r24,241
 348 01b0 1196      		adiw r26,1
 349 01b2 8C93      		st X,r24
 350 01b4 DF01      		movw r26,r30
 351 01b6 1196      		adiw r26,1
 352               	.LVL34:
 353               	.LSM62:
 354 01b8 8091 F100 		lds r24,241
 355 01bc 8183      		std Z+1,r24
 356 01be FD01      		movw r30,r26
 357 01c0 3196      		adiw r30,1
 358               	.LVL35:
 359               	.LSM63:
 360 01c2 8091 F100 		lds r24,241
 361 01c6 1196      		adiw r26,1
 362 01c8 8C93      		st X,r24
 363 01ca DF01      		movw r26,r30
 364 01cc 1196      		adiw r26,1
 365               	.LVL36:
 366               	.LSM64:
 367 01ce 8091 F100 		lds r24,241
 368 01d2 8183      		std Z+1,r24
 369 01d4 FD01      		movw r30,r26
 370 01d6 3196      		adiw r30,1
 371               	.LVL37:
 372               	.LSM65:
 373 01d8 8091 F100 		lds r24,241
 374 01dc 1196      		adiw r26,1
 375 01de 8C93      		st X,r24
 376 01e0 DF01      		movw r26,r30
 377 01e2 1196      		adiw r26,1
 378               	.LVL38:
 379               	.LSM66:
 380 01e4 8091 F100 		lds r24,241
 381 01e8 8183      		std Z+1,r24
 382 01ea FD01      		movw r30,r26
 383 01ec 3196      		adiw r30,1
 384               	.LVL39:
 385               	.LSM67:
 386 01ee 8091 F100 		lds r24,241
 387 01f2 1196      		adiw r26,1
 388 01f4 8C93      		st X,r24
 389 01f6 DF01      		movw r26,r30
 390 01f8 1196      		adiw r26,1
 391               	.LVL40:
 392               	.LSM68:
 393 01fa 8091 F100 		lds r24,241
 394 01fe 8183      		std Z+1,r24
 395 0200 FD01      		movw r30,r26
 396 0202 3196      		adiw r30,1
 397               	.LVL41:
 398               	.LSM69:
 399 0204 8091 F100 		lds r24,241
 400 0208 1196      		adiw r26,1
 401 020a 8C93      		st X,r24
 402 020c DF01      		movw r26,r30
 403 020e 1196      		adiw r26,1
 404               	.LVL42:
 405               	.LSM70:
 406 0210 8091 F100 		lds r24,241
 407 0214 8183      		std Z+1,r24
 408 0216 FD01      		movw r30,r26
 409 0218 3196      		adiw r30,1
 410               	.LVL43:
 411               	.LSM71:
 412 021a 8091 F100 		lds r24,241
 413 021e 1196      		adiw r26,1
 414 0220 8C93      		st X,r24
 415 0222 DF01      		movw r26,r30
 416 0224 1196      		adiw r26,1
 417               	.LVL44:
 418               	.LSM72:
 419 0226 8091 F100 		lds r24,241
 420 022a 8183      		std Z+1,r24
 421 022c FD01      		movw r30,r26
 422 022e 3196      		adiw r30,1
 423               	.LVL45:
 424               	.LSM73:
 425 0230 8091 F100 		lds r24,241
 426 0234 1196      		adiw r26,1
 427 0236 8C93      		st X,r24
 428 0238 DF01      		movw r26,r30
 429 023a 1196      		adiw r26,1
 430               	.LVL46:
 431               	.LSM74:
 432 023c 8091 F100 		lds r24,241
 433 0240 8183      		std Z+1,r24
 434 0242 FD01      		movw r30,r26
 435 0244 3196      		adiw r30,1
 436               	.LVL47:
 437               	.LSM75:
 438 0246 8091 F100 		lds r24,241
 439 024a 1196      		adiw r26,1
 440 024c 8C93      		st X,r24
 441 024e DF01      		movw r26,r30
 442 0250 1196      		adiw r26,1
 443               	.LVL48:
 444               	.LSM76:
 445 0252 8091 F100 		lds r24,241
 446 0256 8183      		std Z+1,r24
 447 0258 FD01      		movw r30,r26
 448 025a 3196      		adiw r30,1
 449               	.LVL49:
 450               	.LSM77:
 451 025c 8091 F100 		lds r24,241
 452 0260 1196      		adiw r26,1
 453 0262 8C93      		st X,r24
 454 0264 DF01      		movw r26,r30
 455 0266 1196      		adiw r26,1
 456               	.LVL50:
 457               	.LSM78:
 458 0268 8091 F100 		lds r24,241
 459 026c 8183      		std Z+1,r24
 460 026e FD01      		movw r30,r26
 461 0270 3196      		adiw r30,1
 462               	.LVL51:
 463               	.LSM79:
 464 0272 8091 F100 		lds r24,241
 465 0276 1196      		adiw r26,1
 466 0278 8C93      		st X,r24
 467 027a DF01      		movw r26,r30
 468 027c 1196      		adiw r26,1
 469               	.LVL52:
 470               	.LSM80:
 471 027e 8091 F100 		lds r24,241
 472 0282 8183      		std Z+1,r24
 473 0284 FD01      		movw r30,r26
 474 0286 3196      		adiw r30,1
 475               	.LVL53:
 476               	.LSM81:
 477 0288 8091 F100 		lds r24,241
 478 028c 1196      		adiw r26,1
 479 028e 8C93      		st X,r24
 480 0290 DF01      		movw r26,r30
 481 0292 1196      		adiw r26,1
 482               	.LVL54:
 483               	.LSM82:
 484 0294 8091 F100 		lds r24,241
 485 0298 8183      		std Z+1,r24
 486 029a FD01      		movw r30,r26
 487 029c 3196      		adiw r30,1
 488               	.LVL55:
 489               	.LSM83:
 490 029e 8091 F100 		lds r24,241
 491 02a2 1196      		adiw r26,1
 492 02a4 8C93      		st X,r24
 493 02a6 DF01      		movw r26,r30
 494 02a8 1196      		adiw r26,1
 495               	.LVL56:
 496               	.LSM84:
 497 02aa 8091 F100 		lds r24,241
 498 02ae 8183      		std Z+1,r24
 499 02b0 FD01      		movw r30,r26
 500 02b2 3196      		adiw r30,1
 501               	.LVL57:
 502               	.LSM85:
 503 02b4 8091 F100 		lds r24,241
 504 02b8 1196      		adiw r26,1
 505 02ba 8C93      		st X,r24
 506 02bc DF01      		movw r26,r30
 507 02be 1196      		adiw r26,1
 508               	.LVL58:
 509               	.LSM86:
 510 02c0 8091 F100 		lds r24,241
 511 02c4 8183      		std Z+1,r24
 512 02c6 FD01      		movw r30,r26
 513 02c8 3196      		adiw r30,1
 514               	.LVL59:
 515               	.LSM87:
 516 02ca 8091 F100 		lds r24,241
 517 02ce 1196      		adiw r26,1
 518 02d0 8C93      		st X,r24
 519 02d2 DF01      		movw r26,r30
 520 02d4 1196      		adiw r26,1
 521               	.LVL60:
 522               	.LSM88:
 523 02d6 8091 F100 		lds r24,241
 524 02da 8183      		std Z+1,r24
 525 02dc FD01      		movw r30,r26
 526 02de 3196      		adiw r30,1
 527               	.LVL61:
 528               	.LSM89:
 529 02e0 8091 F100 		lds r24,241
 530 02e4 1196      		adiw r26,1
 531 02e6 8C93      		st X,r24
 532               	.LSM90:
 533 02e8 8091 F100 		lds r24,241
 534 02ec 8183      		std Z+1,r24
 535               	.LSM91:
 536 02ee 8091 F100 		lds r24,241
 537 02f2 8283      		std Z+2,r24
 538               	.LSM92:
 539 02f4 8BE6      		ldi r24,lo8(107)
 540 02f6 8093 E800 		sts 232,r24
 541               	.LSM93:
 542 02fa 2FBF      		out __SREG__,r18
 543 02fc 80E4      		ldi r24,lo8(64)
 544 02fe 0895      		ret
 545               	.LVL62:
 546               	.L8:
 547               	.LSM94:
 548 0300 8FEF      		ldi r24,lo8(-1)
 549               	.L11:
 550               	.LSM95:
 551 0302 0895      		ret
 552               	.LFE4:
 554               		.section	.text.usb_rawhid_send,"ax",@progbits
 555               	.global	usb_rawhid_send
 557               	usb_rawhid_send:
 558               	.LFB5:
 559               	.LSM96:
 560               	.LVL63:
 561               	/* prologue: function */
 562               	/* frame size = 0 */
 563 0000 DC01      		movw r26,r24
 564               	.LSM97:
 565 0002 8091 0000 		lds r24,usb_configuration
 566               	.LVL64:
 567 0006 8823      		tst r24
 568 0008 01F4      		brne .+2
 569 000a 00C0      		rjmp .L15
 570               	.LSM98:
 571 000c 2FB7      		in r18,__SREG__
 572               	.LVL65:
 573               	.LSM99:
 574               	/* #APP */
 575               	 ;  546 "usb_rawhid_debug.c" 1
 576 000e F894      		cli
 577               	 ;  0 "" 2
 578               	.LSM100:
 579               	/* #NOAPP */
 580 0010 6093 0000 		sts tx_timeout_count,r22
 581               	.LSM101:
 582 0014 81E0      		ldi r24,lo8(1)
 583 0016 8093 E900 		sts 233,r24
 584               	.LSM102:
 585 001a 91E0      		ldi r25,lo8(1)
 586               	.L19:
 587               	.LSM103:
 588 001c 8091 E800 		lds r24,232
 589 0020 85FD      		sbrc r24,5
 590 0022 00C0      		rjmp .L16
 591               	.LSM104:
 592 0024 2FBF      		out __SREG__,r18
 593               	.LSM105:
 594 0026 8091 0000 		lds r24,tx_timeout_count
 595 002a 8823      		tst r24
 596 002c 01F4      		brne .+2
 597 002e 00C0      		rjmp .L18
 598               	.LSM106:
 599 0030 8091 0000 		lds r24,usb_configuration
 600 0034 8823      		tst r24
 601 0036 01F4      		brne .+2
 602 0038 00C0      		rjmp .L15
 603               	.LSM107:
 604 003a 2FB7      		in r18,__SREG__
 605               	.LSM108:
 606               	/* #APP */
 607               	 ;  556 "usb_rawhid_debug.c" 1
 608 003c F894      		cli
 609               	 ;  0 "" 2
 610               	.LSM109:
 611               	/* #NOAPP */
 612 003e 9093 E900 		sts 233,r25
 613 0042 00C0      		rjmp .L19
 614               	.L16:
 615               	.LSM110:
 616 0044 FD01      		movw r30,r26
 617 0046 8191      		ld r24,Z+
 618 0048 8093 F100 		sts 241,r24
 619               	.LSM111:
 620 004c 1196      		adiw r26,1
 621 004e 8C91      		ld r24,X
 622 0050 8093 F100 		sts 241,r24
 623 0054 DF01      		movw r26,r30
 624 0056 1196      		adiw r26,1
 625               	.LSM112:
 626 0058 8181      		ldd r24,Z+1
 627 005a 8093 F100 		sts 241,r24
 628 005e FD01      		movw r30,r26
 629 0060 3196      		adiw r30,1
 630               	.LVL66:
 631               	.LSM113:
 632 0062 1196      		adiw r26,1
 633 0064 8C91      		ld r24,X
 634 0066 8093 F100 		sts 241,r24
 635 006a DF01      		movw r26,r30
 636 006c 1196      		adiw r26,1
 637               	.LVL67:
 638               	.LSM114:
 639 006e 8181      		ldd r24,Z+1
 640 0070 8093 F100 		sts 241,r24
 641 0074 FD01      		movw r30,r26
 642 0076 3196      		adiw r30,1
 643               	.LVL68:
 644               	.LSM115:
 645 0078 1196      		adiw r26,1
 646 007a 8C91      		ld r24,X
 647 007c 8093 F100 		sts 241,r24
 648 0080 DF01      		movw r26,r30
 649 0082 1196      		adiw r26,1
 650               	.LVL69:
 651               	.LSM116:
 652 0084 8181      		ldd r24,Z+1
 653 0086 8093 F100 		sts 241,r24
 654 008a FD01      		movw r30,r26
 655 008c 3196      		adiw r30,1
 656               	.LVL70:
 657               	.LSM117:
 658 008e 1196      		adiw r26,1
 659 0090 8C91      		ld r24,X
 660 0092 8093 F100 		sts 241,r24
 661 0096 DF01      		movw r26,r30
 662 0098 1196      		adiw r26,1
 663               	.LVL71:
 664               	.LSM118:
 665 009a 8181      		ldd r24,Z+1
 666 009c 8093 F100 		sts 241,r24
 667 00a0 FD01      		movw r30,r26
 668 00a2 3196      		adiw r30,1
 669               	.LVL72:
 670               	.LSM119:
 671 00a4 1196      		adiw r26,1
 672 00a6 8C91      		ld r24,X
 673 00a8 8093 F100 		sts 241,r24
 674 00ac DF01      		movw r26,r30
 675 00ae 1196      		adiw r26,1
 676               	.LVL73:
 677               	.LSM120:
 678 00b0 8181      		ldd r24,Z+1
 679 00b2 8093 F100 		sts 241,r24
 680 00b6 FD01      		movw r30,r26
 681 00b8 3196      		adiw r30,1
 682               	.LVL74:
 683               	.LSM121:
 684 00ba 1196      		adiw r26,1
 685 00bc 8C91      		ld r24,X
 686 00be 8093 F100 		sts 241,r24
 687 00c2 DF01      		movw r26,r30
 688 00c4 1196      		adiw r26,1
 689               	.LVL75:
 690               	.LSM122:
 691 00c6 8181      		ldd r24,Z+1
 692 00c8 8093 F100 		sts 241,r24
 693 00cc FD01      		movw r30,r26
 694 00ce 3196      		adiw r30,1
 695               	.LVL76:
 696               	.LSM123:
 697 00d0 1196      		adiw r26,1
 698 00d2 8C91      		ld r24,X
 699 00d4 8093 F100 		sts 241,r24
 700 00d8 DF01      		movw r26,r30
 701 00da 1196      		adiw r26,1
 702               	.LVL77:
 703               	.LSM124:
 704 00dc 8181      		ldd r24,Z+1
 705 00de 8093 F100 		sts 241,r24
 706 00e2 FD01      		movw r30,r26
 707 00e4 3196      		adiw r30,1
 708               	.LVL78:
 709               	.LSM125:
 710 00e6 1196      		adiw r26,1
 711 00e8 8C91      		ld r24,X
 712 00ea 8093 F100 		sts 241,r24
 713 00ee DF01      		movw r26,r30
 714 00f0 1196      		adiw r26,1
 715               	.LVL79:
 716               	.LSM126:
 717 00f2 8181      		ldd r24,Z+1
 718 00f4 8093 F100 		sts 241,r24
 719 00f8 FD01      		movw r30,r26
 720 00fa 3196      		adiw r30,1
 721               	.LVL80:
 722               	.LSM127:
 723 00fc 1196      		adiw r26,1
 724 00fe 8C91      		ld r24,X
 725 0100 8093 F100 		sts 241,r24
 726 0104 DF01      		movw r26,r30
 727 0106 1196      		adiw r26,1
 728               	.LVL81:
 729               	.LSM128:
 730 0108 8181      		ldd r24,Z+1
 731 010a 8093 F100 		sts 241,r24
 732 010e FD01      		movw r30,r26
 733 0110 3196      		adiw r30,1
 734               	.LVL82:
 735               	.LSM129:
 736 0112 1196      		adiw r26,1
 737 0114 8C91      		ld r24,X
 738 0116 8093 F100 		sts 241,r24
 739 011a DF01      		movw r26,r30
 740 011c 1196      		adiw r26,1
 741               	.LVL83:
 742               	.LSM130:
 743 011e 8181      		ldd r24,Z+1
 744 0120 8093 F100 		sts 241,r24
 745 0124 FD01      		movw r30,r26
 746 0126 3196      		adiw r30,1
 747               	.LVL84:
 748               	.LSM131:
 749 0128 1196      		adiw r26,1
 750 012a 8C91      		ld r24,X
 751 012c 8093 F100 		sts 241,r24
 752 0130 DF01      		movw r26,r30
 753 0132 1196      		adiw r26,1
 754               	.LVL85:
 755               	.LSM132:
 756 0134 8181      		ldd r24,Z+1
 757 0136 8093 F100 		sts 241,r24
 758 013a FD01      		movw r30,r26
 759 013c 3196      		adiw r30,1
 760               	.LVL86:
 761               	.LSM133:
 762 013e 1196      		adiw r26,1
 763 0140 8C91      		ld r24,X
 764 0142 8093 F100 		sts 241,r24
 765 0146 DF01      		movw r26,r30
 766 0148 1196      		adiw r26,1
 767               	.LVL87:
 768               	.LSM134:
 769 014a 8181      		ldd r24,Z+1
 770 014c 8093 F100 		sts 241,r24
 771 0150 FD01      		movw r30,r26
 772 0152 3196      		adiw r30,1
 773               	.LVL88:
 774               	.LSM135:
 775 0154 1196      		adiw r26,1
 776 0156 8C91      		ld r24,X
 777 0158 8093 F100 		sts 241,r24
 778 015c DF01      		movw r26,r30
 779 015e 1196      		adiw r26,1
 780               	.LVL89:
 781               	.LSM136:
 782 0160 8181      		ldd r24,Z+1
 783 0162 8093 F100 		sts 241,r24
 784 0166 FD01      		movw r30,r26
 785 0168 3196      		adiw r30,1
 786               	.LVL90:
 787               	.LSM137:
 788 016a 1196      		adiw r26,1
 789 016c 8C91      		ld r24,X
 790 016e 8093 F100 		sts 241,r24
 791 0172 DF01      		movw r26,r30
 792 0174 1196      		adiw r26,1
 793               	.LVL91:
 794               	.LSM138:
 795 0176 8181      		ldd r24,Z+1
 796 0178 8093 F100 		sts 241,r24
 797 017c FD01      		movw r30,r26
 798 017e 3196      		adiw r30,1
 799               	.LVL92:
 800               	.LSM139:
 801 0180 1196      		adiw r26,1
 802 0182 8C91      		ld r24,X
 803 0184 8093 F100 		sts 241,r24
 804 0188 DF01      		movw r26,r30
 805 018a 1196      		adiw r26,1
 806               	.LVL93:
 807               	.LSM140:
 808 018c 8181      		ldd r24,Z+1
 809 018e 8093 F100 		sts 241,r24
 810 0192 FD01      		movw r30,r26
 811 0194 3196      		adiw r30,1
 812               	.LVL94:
 813               	.LSM141:
 814 0196 1196      		adiw r26,1
 815 0198 8C91      		ld r24,X
 816 019a 8093 F100 		sts 241,r24
 817 019e DF01      		movw r26,r30
 818 01a0 1196      		adiw r26,1
 819               	.LVL95:
 820               	.LSM142:
 821 01a2 8181      		ldd r24,Z+1
 822 01a4 8093 F100 		sts 241,r24
 823 01a8 FD01      		movw r30,r26
 824 01aa 3196      		adiw r30,1
 825               	.LVL96:
 826               	.LSM143:
 827 01ac 1196      		adiw r26,1
 828 01ae 8C91      		ld r24,X
 829 01b0 8093 F100 		sts 241,r24
 830 01b4 DF01      		movw r26,r30
 831 01b6 1196      		adiw r26,1
 832               	.LVL97:
 833               	.LSM144:
 834 01b8 8181      		ldd r24,Z+1
 835 01ba 8093 F100 		sts 241,r24
 836 01be FD01      		movw r30,r26
 837 01c0 3196      		adiw r30,1
 838               	.LVL98:
 839               	.LSM145:
 840 01c2 1196      		adiw r26,1
 841 01c4 8C91      		ld r24,X
 842 01c6 8093 F100 		sts 241,r24
 843 01ca DF01      		movw r26,r30
 844 01cc 1196      		adiw r26,1
 845               	.LVL99:
 846               	.LSM146:
 847 01ce 8181      		ldd r24,Z+1
 848 01d0 8093 F100 		sts 241,r24
 849 01d4 FD01      		movw r30,r26
 850 01d6 3196      		adiw r30,1
 851               	.LVL100:
 852               	.LSM147:
 853 01d8 1196      		adiw r26,1
 854 01da 8C91      		ld r24,X
 855 01dc 8093 F100 		sts 241,r24
 856 01e0 DF01      		movw r26,r30
 857 01e2 1196      		adiw r26,1
 858               	.LVL101:
 859               	.LSM148:
 860 01e4 8181      		ldd r24,Z+1
 861 01e6 8093 F100 		sts 241,r24
 862 01ea FD01      		movw r30,r26
 863 01ec 3196      		adiw r30,1
 864               	.LVL102:
 865               	.LSM149:
 866 01ee 1196      		adiw r26,1
 867 01f0 8C91      		ld r24,X
 868 01f2 8093 F100 		sts 241,r24
 869 01f6 DF01      		movw r26,r30
 870 01f8 1196      		adiw r26,1
 871               	.LVL103:
 872               	.LSM150:
 873 01fa 8181      		ldd r24,Z+1
 874 01fc 8093 F100 		sts 241,r24
 875 0200 FD01      		movw r30,r26
 876 0202 3196      		adiw r30,1
 877               	.LVL104:
 878               	.LSM151:
 879 0204 1196      		adiw r26,1
 880 0206 8C91      		ld r24,X
 881 0208 8093 F100 		sts 241,r24
 882 020c DF01      		movw r26,r30
 883 020e 1196      		adiw r26,1
 884               	.LVL105:
 885               	.LSM152:
 886 0210 8181      		ldd r24,Z+1
 887 0212 8093 F100 		sts 241,r24
 888 0216 FD01      		movw r30,r26
 889 0218 3196      		adiw r30,1
 890               	.LVL106:
 891               	.LSM153:
 892 021a 1196      		adiw r26,1
 893 021c 8C91      		ld r24,X
 894 021e 8093 F100 		sts 241,r24
 895 0222 DF01      		movw r26,r30
 896 0224 1196      		adiw r26,1
 897               	.LVL107:
 898               	.LSM154:
 899 0226 8181      		ldd r24,Z+1
 900 0228 8093 F100 		sts 241,r24
 901 022c FD01      		movw r30,r26
 902 022e 3196      		adiw r30,1
 903               	.LVL108:
 904               	.LSM155:
 905 0230 1196      		adiw r26,1
 906 0232 8C91      		ld r24,X
 907 0234 8093 F100 		sts 241,r24
 908 0238 DF01      		movw r26,r30
 909 023a 1196      		adiw r26,1
 910               	.LVL109:
 911               	.LSM156:
 912 023c 8181      		ldd r24,Z+1
 913 023e 8093 F100 		sts 241,r24
 914 0242 FD01      		movw r30,r26
 915 0244 3196      		adiw r30,1
 916               	.LVL110:
 917               	.LSM157:
 918 0246 1196      		adiw r26,1
 919 0248 8C91      		ld r24,X
 920 024a 8093 F100 		sts 241,r24
 921 024e DF01      		movw r26,r30
 922 0250 1196      		adiw r26,1
 923               	.LVL111:
 924               	.LSM158:
 925 0252 8181      		ldd r24,Z+1
 926 0254 8093 F100 		sts 241,r24
 927 0258 FD01      		movw r30,r26
 928 025a 3196      		adiw r30,1
 929               	.LVL112:
 930               	.LSM159:
 931 025c 1196      		adiw r26,1
 932 025e 8C91      		ld r24,X
 933 0260 8093 F100 		sts 241,r24
 934 0264 DF01      		movw r26,r30
 935 0266 1196      		adiw r26,1
 936               	.LVL113:
 937               	.LSM160:
 938 0268 8181      		ldd r24,Z+1
 939 026a 8093 F100 		sts 241,r24
 940 026e FD01      		movw r30,r26
 941 0270 3196      		adiw r30,1
 942               	.LVL114:
 943               	.LSM161:
 944 0272 1196      		adiw r26,1
 945 0274 8C91      		ld r24,X
 946 0276 8093 F100 		sts 241,r24
 947 027a DF01      		movw r26,r30
 948 027c 1196      		adiw r26,1
 949               	.LVL115:
 950               	.LSM162:
 951 027e 8181      		ldd r24,Z+1
 952 0280 8093 F100 		sts 241,r24
 953 0284 FD01      		movw r30,r26
 954 0286 3196      		adiw r30,1
 955               	.LVL116:
 956               	.LSM163:
 957 0288 1196      		adiw r26,1
 958 028a 8C91      		ld r24,X
 959 028c 8093 F100 		sts 241,r24
 960 0290 DF01      		movw r26,r30
 961 0292 1196      		adiw r26,1
 962               	.LVL117:
 963               	.LSM164:
 964 0294 8181      		ldd r24,Z+1
 965 0296 8093 F100 		sts 241,r24
 966 029a FD01      		movw r30,r26
 967 029c 3196      		adiw r30,1
 968               	.LVL118:
 969               	.LSM165:
 970 029e 1196      		adiw r26,1
 971 02a0 8C91      		ld r24,X
 972 02a2 8093 F100 		sts 241,r24
 973 02a6 DF01      		movw r26,r30
 974 02a8 1196      		adiw r26,1
 975               	.LVL119:
 976               	.LSM166:
 977 02aa 8181      		ldd r24,Z+1
 978 02ac 8093 F100 		sts 241,r24
 979 02b0 FD01      		movw r30,r26
 980 02b2 3196      		adiw r30,1
 981               	.LVL120:
 982               	.LSM167:
 983 02b4 1196      		adiw r26,1
 984 02b6 8C91      		ld r24,X
 985 02b8 8093 F100 		sts 241,r24
 986 02bc DF01      		movw r26,r30
 987 02be 1196      		adiw r26,1
 988               	.LVL121:
 989               	.LSM168:
 990 02c0 8181      		ldd r24,Z+1
 991 02c2 8093 F100 		sts 241,r24
 992 02c6 FD01      		movw r30,r26
 993 02c8 3196      		adiw r30,1
 994               	.LVL122:
 995               	.LSM169:
 996 02ca 1196      		adiw r26,1
 997 02cc 8C91      		ld r24,X
 998 02ce 8093 F100 		sts 241,r24
 999 02d2 DF01      		movw r26,r30
 1000 02d4 1196      		adiw r26,1
 1001               	.LVL123:
 1002               	.LSM170:
 1003 02d6 8181      		ldd r24,Z+1
 1004 02d8 8093 F100 		sts 241,r24
 1005 02dc FD01      		movw r30,r26
 1006 02de 3196      		adiw r30,1
 1007               	.LVL124:
 1008               	.LSM171:
 1009 02e0 1196      		adiw r26,1
 1010 02e2 8C91      		ld r24,X
 1011 02e4 8093 F100 		sts 241,r24
 1012               	.LSM172:
 1013 02e8 8181      		ldd r24,Z+1
 1014 02ea 8093 F100 		sts 241,r24
 1015               	.LSM173:
 1016 02ee 8281      		ldd r24,Z+2
 1017 02f0 8093 F100 		sts 241,r24
 1018               	.LSM174:
 1019 02f4 8AE3      		ldi r24,lo8(58)
 1020 02f6 8093 E800 		sts 232,r24
 1021               	.LSM175:
 1022 02fa 2FBF      		out __SREG__,r18
 1023 02fc 80E4      		ldi r24,lo8(64)
 1024 02fe 0895      		ret
 1025               	.LVL125:
 1026               	.L15:
 1027               	.LSM176:
 1028 0300 8FEF      		ldi r24,lo8(-1)
 1029               	.L18:
 1030               	.LSM177:
 1031 0302 0895      		ret
 1032               	.LFE5:
 1034               		.section	.text.usb_debug_putchar,"ax",@progbits
 1035               	.global	usb_debug_putchar
 1037               	usb_debug_putchar:
 1038               	.LFB6:
 1039               	.LSM178:
 1040               	.LVL126:
 1041               	/* prologue: function */
 1042               	/* frame size = 0 */
 1043 0000 482F      		mov r20,r24
 1044               	.LSM179:
 1045 0002 8091 0000 		lds r24,usb_configuration
 1046               	.LVL127:
 1047 0006 8823      		tst r24
 1048 0008 01F4      		brne .+2
 1049 000a 00C0      		rjmp .L22
 1050               	.LSM180:
 1051 000c 2FB7      		in r18,__SREG__
 1052               	.LVL128:
 1053               	.LSM181:
 1054               	/* #APP */
 1055               	 ;  774 "usb_rawhid_debug.c" 1
 1056 000e F894      		cli
 1057               	 ;  0 "" 2
 1058               	.LSM182:
 1059               	/* #NOAPP */
 1060 0010 83E0      		ldi r24,lo8(3)
 1061 0012 8093 E900 		sts 233,r24
 1062               	.LSM183:
 1063 0016 8091 0000 		lds r24,previous_timeout.1484
 1064 001a 8823      		tst r24
 1065 001c 01F0      		breq .L23
 1066               	.LSM184:
 1067 001e 8091 E800 		lds r24,232
 1068 0022 85FD      		sbrc r24,5
 1069 0024 00C0      		rjmp .L24
 1070               	.LSM185:
 1071 0026 2FBF      		out __SREG__,r18
 1072 0028 00C0      		rjmp .L32
 1073               	.L24:
 1074               	.LSM186:
 1075 002a 1092 0000 		sts previous_timeout.1484,__zero_reg__
 1076               	.L23:
 1077               	.LSM187:
 1078 002e 9091 E400 		lds r25,228
 1079               	.LVL129:
 1080 0032 9D5F      		subi r25,lo8(-(3))
 1081               	.LSM188:
 1082 0034 33E0      		ldi r19,lo8(3)
 1083               	.L28:
 1084               	.LSM189:
 1085 0036 8091 E800 		lds r24,232
 1086 003a 85FD      		sbrc r24,5
 1087 003c 00C0      		rjmp .L26
 1088               	.LSM190:
 1089 003e 2FBF      		out __SREG__,r18
 1090               	.LSM191:
 1091 0040 8091 E400 		lds r24,228
 1092 0044 8917      		cp r24,r25
 1093 0046 01F4      		brne .L27
 1094               	.LSM192:
 1095 0048 81E0      		ldi r24,lo8(1)
 1096 004a 8093 0000 		sts previous_timeout.1484,r24
 1097               	.L32:
 1098 004e 8FEF      		ldi r24,lo8(-1)
 1099 0050 0895      		ret
 1100               	.L27:
 1101               	.LSM193:
 1102 0052 8091 0000 		lds r24,usb_configuration
 1103 0056 8823      		tst r24
 1104 0058 01F0      		breq .L22
 1105               	.LSM194:
 1106 005a 2FB7      		in r18,__SREG__
 1107               	.LSM195:
 1108               	/* #APP */
 1109               	 ;  799 "usb_rawhid_debug.c" 1
 1110 005c F894      		cli
 1111               	 ;  0 "" 2
 1112               	.LSM196:
 1113               	/* #NOAPP */
 1114 005e 3093 E900 		sts 233,r19
 1115 0062 00C0      		rjmp .L28
 1116               	.L26:
 1117               	.LSM197:
 1118 0064 4093 F100 		sts 241,r20
 1119               	.LSM198:
 1120 0068 8091 E800 		lds r24,232
 1121 006c 85FD      		sbrc r24,5
 1122 006e 00C0      		rjmp .L29
 1123               	.LSM199:
 1124 0070 8AE3      		ldi r24,lo8(58)
 1125 0072 8093 E800 		sts 232,r24
 1126               	.LSM200:
 1127 0076 1092 0000 		sts debug_flush_timer,__zero_reg__
 1128 007a 00C0      		rjmp .L30
 1129               	.L29:
 1130               	.LSM201:
 1131 007c 82E0      		ldi r24,lo8(2)
 1132 007e 8093 0000 		sts debug_flush_timer,r24
 1133               	.L30:
 1134               	.LSM202:
 1135 0082 2FBF      		out __SREG__,r18
 1136 0084 80E0      		ldi r24,lo8(0)
 1137 0086 0895      		ret
 1138               	.L22:
 1139               	.LSM203:
 1140 0088 8FEF      		ldi r24,lo8(-1)
 1141               	.LSM204:
 1142 008a 0895      		ret
 1143               	.LFE6:
 1145               		.section	.text.usb_debug_flush_output,"ax",@progbits
 1146               	.global	usb_debug_flush_output
 1148               	usb_debug_flush_output:
 1149               	.LFB7:
 1150               	.LSM205:
 1151               	/* prologue: function */
 1152               	/* frame size = 0 */
 1153               	.LSM206:
 1154 0000 9FB7      		in r25,__SREG__
 1155               	.LVL130:
 1156               	.LSM207:
 1157               	/* #APP */
 1158               	 ;  822 "usb_rawhid_debug.c" 1
 1159 0002 F894      		cli
 1160               	 ;  0 "" 2
 1161               	.LSM208:
 1162               	/* #NOAPP */
 1163 0004 8091 0000 		lds r24,debug_flush_timer
 1164 0008 8823      		tst r24
 1165 000a 01F0      		breq .L34
 1166               	.LSM209:
 1167 000c 83E0      		ldi r24,lo8(3)
 1168 000e 8093 E900 		sts 233,r24
 1169 0012 00C0      		rjmp .L35
 1170               	.L36:
 1171               	.LSM210:
 1172 0014 1092 F100 		sts 241,__zero_reg__
 1173               	.L35:
 1174               	.LSM211:
 1175 0018 8091 E800 		lds r24,232
 1176 001c 85FD      		sbrc r24,5
 1177 001e 00C0      		rjmp .L36
 1178               	.LSM212:
 1179 0020 8AE3      		ldi r24,lo8(58)
 1180 0022 8093 E800 		sts 232,r24
 1181               	.LSM213:
 1182 0026 1092 0000 		sts debug_flush_timer,__zero_reg__
 1183               	.L34:
 1184               	.LSM214:
 1185 002a 9FBF      		out __SREG__,r25
 1186               	/* epilogue start */
 1187               	.LSM215:
 1188 002c 0895      		ret
 1189               	.LFE7:
 1191               		.section	.text.__vector_10,"ax",@progbits
 1192               	.global	__vector_10
 1194               	__vector_10:
 1195               	.LFB8:
 1196               	.LSM216:
 1197 0000 1F92      		push __zero_reg__
 1198 0002 0F92      		push r0
 1199 0004 0FB6      		in r0,__SREG__
 1200 0006 0F92      		push r0
 1201 0008 1124      		clr __zero_reg__
 1202 000a 8F93      		push r24
 1203 000c 9F93      		push r25
 1204               	/* prologue: Signal */
 1205               	/* frame size = 0 */
 1206               	.LSM217:
 1207 000e 8091 E100 		lds r24,225
 1208               	.LVL131:
 1209               	.LSM218:
 1210 0012 1092 E100 		sts 225,__zero_reg__
 1211               	.LSM219:
 1212 0016 982F      		mov r25,r24
 1213 0018 83FF      		sbrs r24,3
 1214 001a 00C0      		rjmp .L39
 1215               	.LVL132:
 1216               	.LSM220:
 1217 001c 1092 E900 		sts 233,__zero_reg__
 1218               	.LSM221:
 1219 0020 81E0      		ldi r24,lo8(1)
 1220 0022 8093 EB00 		sts 235,r24
 1221               	.LSM222:
 1222 0026 1092 EC00 		sts 236,__zero_reg__
 1223               	.LSM223:
 1224 002a 82E1      		ldi r24,lo8(18)
 1225 002c 8093 ED00 		sts 237,r24
 1226               	.LSM224:
 1227 0030 88E0      		ldi r24,lo8(8)
 1228 0032 8093 F000 		sts 240,r24
 1229               	.LSM225:
 1230 0036 1092 0000 		sts usb_configuration,__zero_reg__
 1231               	.L39:
 1232               	.LSM226:
 1233 003a 92FF      		sbrs r25,2
 1234 003c 00C0      		rjmp .L45
 1235 003e 8091 0000 		lds r24,usb_configuration
 1236 0042 8823      		tst r24
 1237 0044 01F0      		breq .L45
 1238               	.LSM227:
 1239 0046 8091 0000 		lds r24,debug_flush_timer
 1240               	.LVL133:
 1241               	.LSM228:
 1242 004a 8823      		tst r24
 1243 004c 01F0      		breq .L41
 1244               	.LSM229:
 1245 004e 8150      		subi r24,lo8(-(-1))
 1246               	.LVL134:
 1247 0050 8093 0000 		sts debug_flush_timer,r24
 1248               	.LSM230:
 1249 0054 8823      		tst r24
 1250 0056 01F4      		brne .L41
 1251               	.LSM231:
 1252 0058 83E0      		ldi r24,lo8(3)
 1253               	.LVL135:
 1254 005a 8093 E900 		sts 233,r24
 1255 005e 00C0      		rjmp .L42
 1256               	.L43:
 1257               	.LSM232:
 1258 0060 1092 F100 		sts 241,__zero_reg__
 1259               	.L42:
 1260               	.LSM233:
 1261 0064 8091 E800 		lds r24,232
 1262 0068 85FD      		sbrc r24,5
 1263 006a 00C0      		rjmp .L43
 1264               	.LSM234:
 1265 006c 8AE3      		ldi r24,lo8(58)
 1266 006e 8093 E800 		sts 232,r24
 1267               	.LVL136:
 1268               	.L41:
 1269               	.LSM235:
 1270 0072 8091 0000 		lds r24,rx_timeout_count
 1271               	.LVL137:
 1272               	.LSM236:
 1273 0076 8823      		tst r24
 1274 0078 01F0      		breq .L44
 1275 007a 8150      		subi r24,lo8(-(-1))
 1276 007c 8093 0000 		sts rx_timeout_count,r24
 1277               	.L44:
 1278               	.LSM237:
 1279 0080 8091 0000 		lds r24,tx_timeout_count
 1280               	.LVL138:
 1281               	.LSM238:
 1282 0084 8823      		tst r24
 1283 0086 01F0      		breq .L45
 1284 0088 8150      		subi r24,lo8(-(-1))
 1285 008a 8093 0000 		sts tx_timeout_count,r24
 1286               	.L45:
 1287               	/* epilogue start */
 1288               	.LSM239:
 1289 008e 9F91      		pop r25
 1290 0090 8F91      		pop r24
 1291               	.LVL139:
 1292 0092 0F90      		pop r0
 1293 0094 0FBE      		out __SREG__,r0
 1294 0096 0F90      		pop r0
 1295 0098 1F90      		pop __zero_reg__
 1296 009a 1895      		reti
 1297               	.LFE8:
 1299               		.section	.text.__vector_11,"ax",@progbits
 1300               	.global	__vector_11
 1302               	__vector_11:
 1303               	.LFB13:
 1304               	.LSM240:
 1305 0000 1F92      		push __zero_reg__
 1306 0002 0F92      		push r0
 1307 0004 0FB6      		in r0,__SREG__
 1308 0006 0F92      		push r0
 1309 0008 0BB6      		in r0,91-32
 1310 000a 0F92      		push r0
 1311 000c 1124      		clr __zero_reg__
 1312 000e 2F93      		push r18
 1313 0010 3F93      		push r19
 1314 0012 4F93      		push r20
 1315 0014 5F93      		push r21
 1316 0016 6F93      		push r22
 1317 0018 7F93      		push r23
 1318 001a 8F93      		push r24
 1319 001c 9F93      		push r25
 1320 001e AF93      		push r26
 1321 0020 BF93      		push r27
 1322 0022 CF93      		push r28
 1323 0024 DF93      		push r29
 1324 0026 EF93      		push r30
 1325 0028 FF93      		push r31
 1326               	/* prologue: Signal */
 1327               	/* frame size = 0 */
 1328               	.LSM241:
 1329 002a 1092 E900 		sts 233,__zero_reg__
 1330               	.LSM242:
 1331 002e 8091 E800 		lds r24,232
 1332               	.LVL140:
 1333               	.LSM243:
 1334 0032 83FF      		sbrs r24,3
 1335 0034 00C0      		rjmp .L47
 1336               	.LSM244:
 1337 0036 4091 F100 		lds r20,241
 1338               	.LVL141:
 1339               	.LSM245:
 1340 003a 3091 F100 		lds r19,241
 1341               	.LVL142:
 1342               	.LSM246:
 1343 003e 8091 F100 		lds r24,241
 1344               	.LVL143:
 1345 0042 A82F      		mov r26,r24
 1346               	.LVL144:
 1347 0044 B0E0      		ldi r27,lo8(0)
 1348               	.LVL145:
 1349               	.LSM247:
 1350 0046 2091 F100 		lds r18,241
 1351 004a 922F      		mov r25,r18
 1352 004c 80E0      		ldi r24,lo8(0)
 1353 004e A82B      		or r26,r24
 1354 0050 B92B      		or r27,r25
 1355               	.LVL146:
 1356               	.LSM248:
 1357 0052 8091 F100 		lds r24,241
 1358 0056 682F      		mov r22,r24
 1359               	.LVL147:
 1360 0058 70E0      		ldi r23,lo8(0)
 1361               	.LVL148:
 1362               	.LSM249:
 1363 005a 2091 F100 		lds r18,241
 1364 005e 922F      		mov r25,r18
 1365 0060 80E0      		ldi r24,lo8(0)
 1366 0062 682B      		or r22,r24
 1367 0064 792B      		or r23,r25
 1368               	.LVL149:
 1369               	.LSM250:
 1370 0066 8091 F100 		lds r24,241
 1371 006a C82F      		mov r28,r24
 1372               	.LVL150:
 1373 006c D0E0      		ldi r29,lo8(0)
 1374               	.LVL151:
 1375               	.LSM251:
 1376 006e 2091 F100 		lds r18,241
 1377 0072 922F      		mov r25,r18
 1378 0074 80E0      		ldi r24,lo8(0)
 1379 0076 C82B      		or r28,r24
 1380 0078 D92B      		or r29,r25
 1381               	.LVL152:
 1382               	.LSM252:
 1383 007a 82EF      		ldi r24,lo8(-14)
 1384 007c 8093 E800 		sts 232,r24
 1385               	.LSM253:
 1386 0080 3630      		cpi r19,lo8(6)
 1387 0082 01F0      		breq .+2
 1388 0084 00C0      		rjmp .L48
 1389 0086 20E0      		ldi r18,lo8(descriptor_list+7)
 1390 0088 30E0      		ldi r19,hi8(descriptor_list+7)
 1391 008a A901      		movw r20,r18
 1392               	.LVL153:
 1393 008c 4550      		subi r20,lo8(-(-5))
 1394 008e 5040      		sbci r21,hi8(-(-5))
 1395               	.LVL154:
 1396               	.L49:
 1397               	.LSM254:
 1398 0090 F901      		movw r30,r18
 1399               	.LVL155:
 1400 0092 3797      		sbiw r30,7
 1401               	.LBB40:
 1402               	.LSM255:
 1403               	/* #APP */
 1404               	 ;  944 "usb_rawhid_debug.c" 1
 1405 0094 8591      		lpm r24, Z+
 1406 0096 9491      		lpm r25, Z
 1407               		
 1408               	 ;  0 "" 2
 1409               	.LVL156:
 1410               	/* #NOAPP */
 1411               	.LBE40:
 1412               	.LSM256:
 1413 0098 8A17      		cp r24,r26
 1414 009a 9B07      		cpc r25,r27
 1415 009c 01F4      		brne .L51
 1416               	.LBB41:
 1417               	.LSM257:
 1418 009e FA01      		movw r30,r20
 1419               	.LVL157:
 1420               	/* #APP */
 1421               	 ;  950 "usb_rawhid_debug.c" 1
 1422 00a0 8591      		lpm r24, Z+
 1423 00a2 9491      		lpm r25, Z
 1424               		
 1425               	 ;  0 "" 2
 1426               	.LVL158:
 1427               	/* #NOAPP */
 1428               	.LBE41:
 1429               	.LSM258:
 1430 00a4 8617      		cp r24,r22
 1431 00a6 9707      		cpc r25,r23
 1432 00a8 01F4      		brne .L51
 1433               	.LSM259:
 1434 00aa 9A01      		movw r18,r20
 1435               	.LVL159:
 1436 00ac 2E5F      		subi r18,lo8(-(2))
 1437 00ae 3F4F      		sbci r19,hi8(-(2))
 1438               	.LSM260:
 1439 00b0 F901      		movw r30,r18
 1440               	.LVL160:
 1441               	/* #APP */
 1442               	 ;  956 "usb_rawhid_debug.c" 1
 1443 00b2 6591      		lpm r22, Z+
 1444 00b4 7491      		lpm r23, Z
 1445               		
 1446               	 ;  0 "" 2
 1447               	.LVL161:
 1448               	/* #NOAPP */
 1449               	.LBB42:
 1450               	.LSM261:
 1451 00b6 2E5F      		subi r18,lo8(-(2))
 1452 00b8 3F4F      		sbci r19,hi8(-(2))
 1453               	.LVL162:
 1454 00ba F901      		movw r30,r18
 1455               	/* #APP */
 1456               	 ;  958 "usb_rawhid_debug.c" 1
 1457 00bc 2491      		lpm r18, Z
 1458               		
 1459               	 ;  0 "" 2
 1460               	.LVL163:
 1461               	/* #NOAPP */
 1462               	.LBE42:
 1463               	.LSM262:
 1464 00be CE01      		movw r24,r28
 1465               	.LVL164:
 1466 00c0 CF3F      		cpi r28,255
 1467 00c2 D105      		cpc r29,__zero_reg__
 1468 00c4 01F0      		breq .L52
 1469 00c6 00F0      		brlo .L52
 1470 00c8 8FEF      		ldi r24,lo8(255)
 1471 00ca 90E0      		ldi r25,hi8(255)
 1472               	.LVL165:
 1473               	.L52:
 1474 00cc 422F      		mov r20,r18
 1475               	.LVL166:
 1476 00ce 8217      		cp r24,r18
 1477 00d0 00F4      		brsh .L92
 1478               	.LVL167:
 1479 00d2 482F      		mov r20,r24
 1480               	.LVL168:
 1481 00d4 00C0      		rjmp .L92
 1482               	.LVL169:
 1483               	.L51:
 1484 00d6 295F      		subi r18,lo8(-(7))
 1485 00d8 3F4F      		sbci r19,hi8(-(7))
 1486 00da 495F      		subi r20,lo8(-(7))
 1487 00dc 5F4F      		sbci r21,hi8(-(7))
 1488               	.LSM263:
 1489 00de F0E0      		ldi r31,hi8(descriptor_list+70)
 1490 00e0 2030      		cpi r18,lo8(descriptor_list+70)
 1491 00e2 3F07      		cpc r19,r31
 1492 00e4 01F4      		brne .L49
 1493 00e6 00C0      		rjmp .L47
 1494               	.LVL170:
 1495               	.L92:
 1496               	.LBB43:
 1497               	.LBB44:
 1498               	.LSM264:
 1499 00e8 5EEF      		ldi r21,lo8(-2)
 1500               	.LVL171:
 1501               	.L105:
 1502               	.LBE44:
 1503               	.LBE43:
 1504               	.LSM265:
 1505 00ea 8091 E800 		lds r24,232
 1506               	.LVL172:
 1507               	.LSM266:
 1508 00ee 282F      		mov r18,r24
 1509               	.LVL173:
 1510 00f0 30E0      		ldi r19,lo8(0)
 1511               	.LVL174:
 1512 00f2 C901      		movw r24,r18
 1513               	.LVL175:
 1514 00f4 8570      		andi r24,lo8(5)
 1515 00f6 9070      		andi r25,hi8(5)
 1516 00f8 892B      		or r24,r25
 1517 00fa 01F0      		breq .L105
 1518               	.LSM267:
 1519 00fc 22FD      		sbrc r18,2
 1520 00fe 00C0      		rjmp .L86
 1521               	.LSM268:
 1522 0100 342F      		mov r19,r20
 1523               	.LVL176:
 1524 0102 4131      		cpi r20,lo8(17)
 1525 0104 00F0      		brlo .L56
 1526 0106 30E1      		ldi r19,lo8(16)
 1527               	.L56:
 1528 0108 CB01      		movw r24,r22
 1529 010a 232F      		mov r18,r19
 1530               	.LVL177:
 1531 010c 00C0      		rjmp .L57
 1532               	.LVL178:
 1533               	.L58:
 1534               	.LSM269:
 1535 010e FC01      		movw r30,r24
 1536               	.LVL179:
 1537               	.LBB46:
 1538               	.LSM270:
 1539 0110 0196      		adiw r24,1
 1540               	/* #APP */
 1541               	 ;  972 "usb_rawhid_debug.c" 1
 1542 0112 E491      		lpm r30, Z
 1543               		
 1544               	 ;  0 "" 2
 1545               	.LVL180:
 1546               	/* #NOAPP */
 1547               	.LBE46:
 1548 0114 E093 F100 		sts 241,r30
 1549               	.LSM271:
 1550 0118 2150      		subi r18,lo8(-(-1))
 1551               	.LVL181:
 1552               	.L57:
 1553 011a 2223      		tst r18
 1554 011c 01F4      		brne .L58
 1555 011e 630F      		add r22,r19
 1556 0120 711D      		adc r23,__zero_reg__
 1557               	.LVL182:
 1558               	.LSM272:
 1559 0122 431B      		sub r20,r19
 1560               	.LBB47:
 1561               	.LBB45:
 1562               	.LSM273:
 1563 0124 5093 E800 		sts 232,r21
 1564               	.LBE45:
 1565               	.LBE47:
 1566               	.LSM274:
 1567 0128 4423      		tst r20
 1568 012a 01F4      		brne .L105
 1569 012c 3031      		cpi r19,lo8(16)
 1570 012e 01F0      		breq .L105
 1571 0130 00C0      		rjmp .L86
 1572               	.LVL183:
 1573               	.L48:
 1574               	.LSM275:
 1575 0132 3530      		cpi r19,lo8(5)
 1576 0134 01F4      		brne .L59
 1577               	.LBB48:
 1578               	.LBB49:
 1579               	.LSM276:
 1580 0136 8EEF      		ldi r24,lo8(-2)
 1581 0138 8093 E800 		sts 232,r24
 1582               	.L60:
 1583               	.LBE49:
 1584               	.LBE48:
 1585               	.LBB50:
 1586               	.LBB51:
 1587               	.LSM277:
 1588 013c 8091 E800 		lds r24,232
 1589 0140 80FF      		sbrs r24,0
 1590 0142 00C0      		rjmp .L60
 1591               	.LBE51:
 1592               	.LBE50:
 1593               	.LSM278:
 1594 0144 8A2F      		mov r24,r26
 1595               	.LVL184:
 1596 0146 8068      		ori r24,lo8(-128)
 1597 0148 8093 E300 		sts 227,r24
 1598 014c 00C0      		rjmp .L86
 1599               	.LVL185:
 1600               	.L59:
 1601               	.LSM279:
 1602 014e 3930      		cpi r19,lo8(9)
 1603 0150 01F4      		brne .L61
 1604 0152 4423      		tst r20
 1605 0154 01F0      		breq .+2
 1606 0156 00C0      		rjmp .L71
 1607               	.LSM280:
 1608 0158 A093 0000 		sts usb_configuration,r26
 1609               	.LBB52:
 1610               	.LBB53:
 1611               	.LSM281:
 1612 015c 8EEF      		ldi r24,lo8(-2)
 1613 015e 8093 E800 		sts 232,r24
 1614 0162 80E0      		ldi r24,lo8(endpoint_config_table)
 1615 0164 90E0      		ldi r25,hi8(endpoint_config_table)
 1616               	.LVL186:
 1617 0166 21E0      		ldi r18,lo8(1)
 1618               	.LVL187:
 1619               	.L64:
 1620               	.LBE53:
 1621               	.LBE52:
 1622               	.LSM282:
 1623 0168 2093 E900 		sts 233,r18
 1624               	.LBB54:
 1625               	.LSM283:
 1626 016c FC01      		movw r30,r24
 1627               	.LVL188:
 1628 016e 0196      		adiw r24,1
 1629               	/* #APP */
 1630               	 ;  991 "usb_rawhid_debug.c" 1
 1631 0170 E491      		lpm r30, Z
 1632               		
 1633               	 ;  0 "" 2
 1634               	.LVL189:
 1635               	/* #NOAPP */
 1636               	.LBE54:
 1637               	.LSM284:
 1638 0172 E093 EB00 		sts 235,r30
 1639               	.LSM285:
 1640 0176 EE23      		tst r30
 1641 0178 01F0      		breq .L63
 1642               	.LBB55:
 1643               	.LSM286:
 1644 017a AC01      		movw r20,r24
 1645               	.LVL190:
 1646 017c 4F5F      		subi r20,lo8(-(1))
 1647 017e 5F4F      		sbci r21,hi8(-(1))
 1648               	.LVL191:
 1649 0180 FC01      		movw r30,r24
 1650               	.LVL192:
 1651               	/* #APP */
 1652               	 ;  994 "usb_rawhid_debug.c" 1
 1653 0182 8491      		lpm r24, Z
 1654               		
 1655               	 ;  0 "" 2
 1656               	.LVL193:
 1657               	/* #NOAPP */
 1658               	.LBE55:
 1659 0184 8093 EC00 		sts 236,r24
 1660               	.LBB56:
 1661               	.LSM287:
 1662 0188 CA01      		movw r24,r20
 1663               	.LVL194:
 1664 018a 0196      		adiw r24,1
 1665               	.LVL195:
 1666 018c FA01      		movw r30,r20
 1667               	/* #APP */
 1668               	 ;  995 "usb_rawhid_debug.c" 1
 1669 018e 3491      		lpm r19, Z
 1670               		
 1671               	 ;  0 "" 2
 1672               	.LVL196:
 1673               	/* #NOAPP */
 1674               	.LBE56:
 1675 0190 3093 ED00 		sts 237,r19
 1676               	.LVL197:
 1677               	.L63:
 1678               	.LSM288:
 1679 0194 2F5F      		subi r18,lo8(-(1))
 1680 0196 2530      		cpi r18,lo8(5)
 1681 0198 01F4      		brne .L64
 1682               	.LSM289:
 1683 019a 8EE1      		ldi r24,lo8(30)
 1684               	.LVL198:
 1685 019c 00C0      		rjmp .L109
 1686               	.LVL199:
 1687               	.L61:
 1688               	.LSM290:
 1689 019e 3830      		cpi r19,lo8(8)
 1690 01a0 01F4      		brne .L65
 1691 01a2 4038      		cpi r20,lo8(-128)
 1692 01a4 01F0      		breq .+2
 1693 01a6 00C0      		rjmp .L71
 1694               	.L94:
 1695               	.LBB57:
 1696               	.LBB58:
 1697               	.LSM291:
 1698 01a8 8091 E800 		lds r24,232
 1699 01ac 80FF      		sbrs r24,0
 1700 01ae 00C0      		rjmp .L94
 1701               	.LBE58:
 1702               	.LBE57:
 1703               	.LSM292:
 1704 01b0 8091 0000 		lds r24,usb_configuration
 1705 01b4 8093 F100 		sts 241,r24
 1706 01b8 00C0      		rjmp .L110
 1707               	.L65:
 1708               	.LSM293:
 1709 01ba 3323      		tst r19
 1710 01bc 01F4      		brne .L62
 1711               	.L95:
 1712               	.LBB59:
 1713               	.LBB60:
 1714               	.LSM294:
 1715 01be 8091 E800 		lds r24,232
 1716 01c2 80FF      		sbrs r24,0
 1717 01c4 00C0      		rjmp .L95
 1718               	.LBE60:
 1719               	.LBE59:
 1720               	.LSM295:
 1721 01c6 4238      		cpi r20,lo8(-126)
 1722 01c8 01F0      		breq .L68
 1723 01ca 80E0      		ldi r24,lo8(0)
 1724               	.LVL200:
 1725 01cc 00C0      		rjmp .L69
 1726               	.LVL201:
 1727               	.L68:
 1728               	.LSM296:
 1729 01ce 6093 E900 		sts 233,r22
 1730               	.LSM297:
 1731 01d2 8091 EB00 		lds r24,235
 1732 01d6 90E0      		ldi r25,lo8(0)
 1733 01d8 25E0      		ldi r18,5
 1734 01da 9695      	1:	lsr r25
 1735 01dc 8795      		ror r24
 1736 01de 2A95      		dec r18
 1737 01e0 01F4      		brne 1b
 1738 01e2 8170      		andi r24,lo8(1)
 1739               	.LVL202:
 1740               	.LSM298:
 1741 01e4 1092 E900 		sts 233,__zero_reg__
 1742               	.L69:
 1743               	.LSM299:
 1744 01e8 8093 F100 		sts 241,r24
 1745               	.LSM300:
 1746 01ec 1092 F100 		sts 241,__zero_reg__
 1747 01f0 00C0      		rjmp .L110
 1748               	.LVL203:
 1749               	.L62:
 1750               	.LSM301:
 1751 01f2 3130      		cpi r19,lo8(1)
 1752 01f4 01F0      		breq .L70
 1753 01f6 3330      		cpi r19,lo8(3)
 1754 01f8 01F4      		brne .L71
 1755               	.L70:
 1756 01fa 4230      		cpi r20,lo8(2)
 1757 01fc 01F4      		brne .L71
 1758 01fe AB2B      		or r26,r27
 1759 0200 01F4      		brne .L71
 1760               	.LSM302:
 1761 0202 262F      		mov r18,r22
 1762               	.LVL204:
 1763 0204 2F77      		andi r18,lo8(127)
 1764               	.LSM303:
 1765 0206 822F      		mov r24,r18
 1766 0208 8150      		subi r24,lo8(-(-1))
 1767 020a 8430      		cpi r24,lo8(4)
 1768 020c 00F4      		brsh .L71
 1769               	.LBB61:
 1770               	.LBB62:
 1771               	.LSM304:
 1772 020e 8EEF      		ldi r24,lo8(-2)
 1773 0210 8093 E800 		sts 232,r24
 1774               	.LBE62:
 1775               	.LBE61:
 1776               	.LSM305:
 1777 0214 2093 E900 		sts 233,r18
 1778               	.LSM306:
 1779 0218 3330      		cpi r19,lo8(3)
 1780 021a 01F4      		brne .+2
 1781 021c 00C0      		rjmp .L47
 1782               	.L72:
 1783               	.LSM307:
 1784 021e 89E1      		ldi r24,lo8(25)
 1785 0220 8093 EB00 		sts 235,r24
 1786               	.LSM308:
 1787 0224 81E0      		ldi r24,lo8(1)
 1788 0226 90E0      		ldi r25,hi8(1)
 1789 0228 00C0      		rjmp 2f
 1790 022a 880F      	1:	lsl r24
 1791 022c 991F      		rol r25
 1792 022e 2A95      	2:	dec r18
 1793 0230 02F4      		brpl 1b
 1794               	.LVL205:
 1795               	.L109:
 1796 0232 8093 EA00 		sts 234,r24
 1797               	.LSM309:
 1798 0236 1092 EA00 		sts 234,__zero_reg__
 1799 023a 00C0      		rjmp .L86
 1800               	.LVL206:
 1801               	.L71:
 1802               	.LSM310:
 1803 023c 6115      		cp r22,__zero_reg__
 1804 023e 7105      		cpc r23,__zero_reg__
 1805 0240 01F0      		breq .+2
 1806 0242 00C0      		rjmp .L73
 1807               	.LSM311:
 1808 0244 413A      		cpi r20,lo8(-95)
 1809 0246 01F4      		brne .L74
 1810 0248 3130      		cpi r19,lo8(1)
 1811 024a 01F0      		breq .+2
 1812 024c 00C0      		rjmp .L47
 1813 024e 40E4      		ldi r20,lo8(64)
 1814               	.LVL207:
 1815               	.LBB63:
 1816               	.LBB64:
 1817               	.LSM312:
 1818 0250 5EEF      		ldi r21,lo8(-2)
 1819               	.LVL208:
 1820               	.L106:
 1821               	.LBE64:
 1822               	.LBE63:
 1823               	.LSM313:
 1824 0252 8091 E800 		lds r24,232
 1825               	.LVL209:
 1826               	.LSM314:
 1827 0256 282F      		mov r18,r24
 1828 0258 30E0      		ldi r19,lo8(0)
 1829               	.LVL210:
 1830 025a C901      		movw r24,r18
 1831               	.LVL211:
 1832 025c 8570      		andi r24,lo8(5)
 1833 025e 9070      		andi r25,hi8(5)
 1834 0260 892B      		or r24,r25
 1835 0262 01F0      		breq .L106
 1836               	.LSM315:
 1837 0264 22FD      		sbrc r18,2
 1838 0266 00C0      		rjmp .L86
 1839               	.LSM316:
 1840 0268 942F      		mov r25,r20
 1841 026a 4131      		cpi r20,lo8(17)
 1842 026c 00F0      		brlo .L76
 1843 026e 90E1      		ldi r25,lo8(16)
 1844               	.L76:
 1845 0270 892F      		mov r24,r25
 1846               	.LVL212:
 1847 0272 00C0      		rjmp .L77
 1848               	.L78:
 1849               	.LSM317:
 1850 0274 1092 F100 		sts 241,__zero_reg__
 1851               	.LSM318:
 1852 0278 8150      		subi r24,lo8(-(-1))
 1853               	.L77:
 1854 027a 8823      		tst r24
 1855 027c 01F4      		brne .L78
 1856               	.LSM319:
 1857 027e 491B      		sub r20,r25
 1858               	.LBB66:
 1859               	.LBB65:
 1860               	.LSM320:
 1861 0280 5093 E800 		sts 232,r21
 1862               	.LBE65:
 1863               	.LBE66:
 1864               	.LSM321:
 1865 0284 4423      		tst r20
 1866 0286 01F4      		brne .L106
 1867 0288 9031      		cpi r25,lo8(16)
 1868 028a 01F0      		breq .L106
 1869 028c 00C0      		rjmp .L86
 1870               	.LVL213:
 1871               	.L74:
 1872               	.LSM322:
 1873 028e 4132      		cpi r20,lo8(33)
 1874 0290 01F0      		breq .+2
 1875 0292 00C0      		rjmp .L47
 1876 0294 3930      		cpi r19,lo8(9)
 1877 0296 01F4      		brne .L47
 1878 0298 90E4      		ldi r25,lo8(64)
 1879               	.LVL214:
 1880               	.LBB67:
 1881               	.LBB68:
 1882               	.LSM323:
 1883 029a 2BEF      		ldi r18,lo8(-5)
 1884               	.LVL215:
 1885               	.L107:
 1886               	.LBE68:
 1887               	.LBE67:
 1888               	.LBB70:
 1889               	.LBB71:
 1890               	.LSM324:
 1891 029c 8091 E800 		lds r24,232
 1892               	.LVL216:
 1893 02a0 82FF      		sbrs r24,2
 1894 02a2 00C0      		rjmp .L107
 1895               	.LBE71:
 1896               	.LBE70:
 1897               	.LBB72:
 1898               	.LBB69:
 1899               	.LSM325:
 1900 02a4 2093 E800 		sts 232,r18
 1901               	.LBE69:
 1902               	.LBE72:
 1903               	.LSM326:
 1904 02a8 892F      		mov r24,r25
 1905               	.LVL217:
 1906 02aa 9131      		cpi r25,lo8(17)
 1907 02ac 00F0      		brlo .L80
 1908 02ae 80E1      		ldi r24,lo8(16)
 1909               	.L80:
 1910               	.LSM327:
 1911 02b0 981B      		sub r25,r24
 1912               	.LSM328:
 1913 02b2 01F4      		brne .L107
 1914               	.L93:
 1915               	.LBB73:
 1916               	.LBB74:
 1917               	.LSM329:
 1918 02b4 8091 E800 		lds r24,232
 1919               	.LVL218:
 1920 02b8 80FF      		sbrs r24,0
 1921 02ba 00C0      		rjmp .L93
 1922               	.LVL219:
 1923               	.L110:
 1924               	.LBE74:
 1925               	.LBE73:
 1926               	.LBB75:
 1927               	.LBB76:
 1928               	.LSM330:
 1929 02bc 8EEF      		ldi r24,lo8(-2)
 1930               	.LVL220:
 1931 02be 8093 E800 		sts 232,r24
 1932 02c2 00C0      		rjmp .L86
 1933               	.LVL221:
 1934               	.L73:
 1935               	.LBE76:
 1936               	.LBE75:
 1937               	.LSM331:
 1938 02c4 6130      		cpi r22,1
 1939 02c6 7105      		cpc r23,__zero_reg__
 1940 02c8 01F4      		brne .L47
 1941               	.LSM332:
 1942 02ca 3130      		cpi r19,lo8(1)
 1943 02cc 01F4      		brne .L47
 1944 02ce 413A      		cpi r20,lo8(-95)
 1945 02d0 01F4      		brne .L47
 1946               	.LSM333:
 1947 02d2 4C2F      		mov r20,r28
 1948               	.LVL222:
 1949               	.LBB77:
 1950               	.LBB78:
 1951               	.LSM334:
 1952 02d4 5EEF      		ldi r21,lo8(-2)
 1953               	.LVL223:
 1954               	.L108:
 1955               	.LBE78:
 1956               	.LBE77:
 1957               	.LSM335:
 1958 02d6 8091 E800 		lds r24,232
 1959               	.LVL224:
 1960               	.LSM336:
 1961 02da 282F      		mov r18,r24
 1962 02dc 30E0      		ldi r19,lo8(0)
 1963               	.LVL225:
 1964 02de C901      		movw r24,r18
 1965               	.LVL226:
 1966 02e0 8570      		andi r24,lo8(5)
 1967 02e2 9070      		andi r25,hi8(5)
 1968 02e4 892B      		or r24,r25
 1969 02e6 01F0      		breq .L108
 1970               	.LSM337:
 1971 02e8 22FD      		sbrc r18,2
 1972 02ea 00C0      		rjmp .L86
 1973               	.LSM338:
 1974 02ec 942F      		mov r25,r20
 1975 02ee 4131      		cpi r20,lo8(17)
 1976 02f0 00F0      		brlo .L83
 1977 02f2 90E1      		ldi r25,lo8(16)
 1978               	.L83:
 1979 02f4 892F      		mov r24,r25
 1980               	.LVL227:
 1981 02f6 00C0      		rjmp .L84
 1982               	.L85:
 1983               	.LSM339:
 1984 02f8 1092 F100 		sts 241,__zero_reg__
 1985               	.LSM340:
 1986 02fc 8150      		subi r24,lo8(-(-1))
 1987               	.L84:
 1988 02fe 8823      		tst r24
 1989 0300 01F4      		brne .L85
 1990               	.LSM341:
 1991 0302 491B      		sub r20,r25
 1992               	.LBB80:
 1993               	.LBB79:
 1994               	.LSM342:
 1995 0304 5093 E800 		sts 232,r21
 1996               	.LBE79:
 1997               	.LBE80:
 1998               	.LSM343:
 1999 0308 4423      		tst r20
 2000 030a 01F4      		brne .L108
 2001 030c 9031      		cpi r25,lo8(16)
 2002 030e 01F0      		breq .L108
 2003 0310 00C0      		rjmp .L86
 2004               	.LVL228:
 2005               	.L47:
 2006               	.LSM344:
 2007 0312 81E2      		ldi r24,lo8(33)
 2008               	.LVL229:
 2009 0314 8093 EB00 		sts 235,r24
 2010               	.LVL230:
 2011               	.L86:
 2012               	/* epilogue start */
 2013               	.LSM345:
 2014 0318 FF91      		pop r31
 2015 031a EF91      		pop r30
 2016               	.LVL231:
 2017 031c DF91      		pop r29
 2018               	.LVL232:
 2019 031e CF91      		pop r28
 2020               	.LVL233:
 2021 0320 BF91      		pop r27
 2022               	.LVL234:
 2023 0322 AF91      		pop r26
 2024               	.LVL235:
 2025 0324 9F91      		pop r25
 2026               	.LVL236:
 2027 0326 8F91      		pop r24
 2028               	.LVL237:
 2029 0328 7F91      		pop r23
 2030               	.LVL238:
 2031 032a 6F91      		pop r22
 2032               	.LVL239:
 2033 032c 5F91      		pop r21
 2034 032e 4F91      		pop r20
 2035               	.LVL240:
 2036 0330 3F91      		pop r19
 2037               	.LVL241:
 2038 0332 2F91      		pop r18
 2039               	.LVL242:
 2040 0334 0F90      		pop r0
 2041 0336 0BBE      		out 91-32,r0
 2042 0338 0F90      		pop r0
 2043 033a 0FBE      		out __SREG__,r0
 2044 033c 0F90      		pop r0
 2045 033e 1F90      		pop __zero_reg__
 2046 0340 1895      		reti
 2047               	.LFE13:
 2049               		.section	.progmem.data,"a",@progbits
 2052               	descriptor_list:
 2053 0000 0001      		.word	256
 2054 0002 0000      		.word	0
 2055 0004 0000      		.word	device_descriptor
 2056 0006 12        		.byte	18
 2057 0007 0002      		.word	512
 2058 0009 0000      		.word	0
 2059 000b 0000      		.word	config1_descriptor
 2060 000d 42        		.byte	66
 2061 000e 0022      		.word	8704
 2062 0010 0000      		.word	0
 2063 0012 0000      		.word	rawhid_hid_report_desc
 2064 0014 1C        		.byte	28
 2065 0015 0021      		.word	8448
 2066 0017 0000      		.word	0
 2067 0019 0000      		.word	config1_descriptor+18
 2068 001b 09        		.byte	9
 2069 001c 0022      		.word	8704
 2070 001e 0100      		.word	1
 2071 0020 0000      		.word	debug_hid_report_desc
 2072 0022 15        		.byte	21
 2073 0023 0021      		.word	8448
 2074 0025 0100      		.word	1
 2075 0027 0000      		.word	config1_descriptor+50
 2076 0029 09        		.byte	9
 2077 002a 0003      		.word	768
 2078 002c 0000      		.word	0
 2079 002e 0000      		.word	string0
 2080 0030 04        		.byte	4
 2081 0031 0103      		.word	769
 2082 0033 0904      		.word	1033
 2083 0035 0000      		.word	string1
 2084 0037 10        		.byte	16
 2085 0038 0203      		.word	770
 2086 003a 0904      		.word	1033
 2087 003c 0000      		.word	string2
 2088 003e 2E        		.byte	46
 2089               		.lcomm usb_configuration,1
 2092               	endpoint_config_table:
 2093 003f 01        		.byte	1
 2094 0040 C1        		.byte	-63
 2095 0041 36        		.byte	54
 2096 0042 01        		.byte	1
 2097 0043 C0        		.byte	-64
 2098 0044 36        		.byte	54
 2099 0045 01        		.byte	1
 2100 0046 C1        		.byte	-63
 2101 0047 26        		.byte	38
 2102 0048 00        		.byte	0
 2103               		.lcomm debug_flush_timer,1
 2104               		.lcomm rx_timeout_count,1
 2105               		.lcomm tx_timeout_count,1
 2106               		.lcomm previous_timeout.1484,1
 2109               	device_descriptor:
 2110 0049 12        		.byte	18
 2111 004a 01        		.byte	1
 2112 004b 00        		.byte	0
 2113 004c 02        		.byte	2
 2114 004d 00        		.byte	0
 2115 004e 00        		.byte	0
 2116 004f 00        		.byte	0
 2117 0050 10        		.byte	16
 2118 0051 C0        		.byte	-64
 2119 0052 16        		.byte	22
 2120 0053 80        		.byte	-128
 2121 0054 04        		.byte	4
 2122 0055 00        		.byte	0
 2123 0056 01        		.byte	1
 2124 0057 01        		.byte	1
 2125 0058 02        		.byte	2
 2126 0059 00        		.byte	0
 2127 005a 01        		.byte	1
 2130               	config1_descriptor:
 2131 005b 09        		.byte	9
 2132 005c 02        		.byte	2
 2133 005d 42        		.byte	66
 2134 005e 00        		.byte	0
 2135 005f 02        		.byte	2
 2136 0060 01        		.byte	1
 2137 0061 00        		.byte	0
 2138 0062 C0        		.byte	-64
 2139 0063 32        		.byte	50
 2140 0064 09        		.byte	9
 2141 0065 04        		.byte	4
 2142 0066 00        		.byte	0
 2143 0067 00        		.byte	0
 2144 0068 02        		.byte	2
 2145 0069 03        		.byte	3
 2146 006a 00        		.byte	0
 2147 006b 00        		.byte	0
 2148 006c 00        		.byte	0
 2149 006d 09        		.byte	9
 2150 006e 21        		.byte	33
 2151 006f 11        		.byte	17
 2152 0070 01        		.byte	1
 2153 0071 00        		.byte	0
 2154 0072 01        		.byte	1
 2155 0073 22        		.byte	34
 2156 0074 1C        		.byte	28
 2157 0075 00        		.byte	0
 2158 0076 07        		.byte	7
 2159 0077 05        		.byte	5
 2160 0078 81        		.byte	-127
 2161 0079 03        		.byte	3
 2162 007a 40        		.byte	64
 2163 007b 00        		.byte	0
 2164 007c 02        		.byte	2
 2165 007d 07        		.byte	7
 2166 007e 05        		.byte	5
 2167 007f 02        		.byte	2
 2168 0080 03        		.byte	3
 2169 0081 40        		.byte	64
 2170 0082 00        		.byte	0
 2171 0083 08        		.byte	8
 2172 0084 09        		.byte	9
 2173 0085 04        		.byte	4
 2174 0086 01        		.byte	1
 2175 0087 00        		.byte	0
 2176 0088 01        		.byte	1
 2177 0089 03        		.byte	3
 2178 008a 00        		.byte	0
 2179 008b 00        		.byte	0
 2180 008c 00        		.byte	0
 2181 008d 09        		.byte	9
 2182 008e 21        		.byte	33
 2183 008f 11        		.byte	17
 2184 0090 01        		.byte	1
 2185 0091 00        		.byte	0
 2186 0092 01        		.byte	1
 2187 0093 22        		.byte	34
 2188 0094 15        		.byte	21
 2189 0095 00        		.byte	0
 2190 0096 07        		.byte	7
 2191 0097 05        		.byte	5
 2192 0098 83        		.byte	-125
 2193 0099 03        		.byte	3
 2194 009a 20        		.byte	32
 2195 009b 00        		.byte	0
 2196 009c 01        		.byte	1
 2199               	rawhid_hid_report_desc:
 2200 009d 06        		.byte	6
 2201 009e AB        		.byte	-85
 2202 009f FF        		.byte	-1
 2203 00a0 0A        		.byte	10
 2204 00a1 00        		.byte	0
 2205 00a2 02        		.byte	2
 2206 00a3 A1        		.byte	-95
 2207 00a4 01        		.byte	1
 2208 00a5 75        		.byte	117
 2209 00a6 08        		.byte	8
 2210 00a7 15        		.byte	21
 2211 00a8 00        		.byte	0
 2212 00a9 26        		.byte	38
 2213 00aa FF        		.byte	-1
 2214 00ab 00        		.byte	0
 2215 00ac 95        		.byte	-107
 2216 00ad 40        		.byte	64
 2217 00ae 09        		.byte	9
 2218 00af 01        		.byte	1
 2219 00b0 81        		.byte	-127
 2220 00b1 02        		.byte	2
 2221 00b2 95        		.byte	-107
 2222 00b3 40        		.byte	64
 2223 00b4 09        		.byte	9
 2224 00b5 02        		.byte	2
 2225 00b6 91        		.byte	-111
 2226 00b7 02        		.byte	2
 2227 00b8 C0        		.byte	-64
 2230               	debug_hid_report_desc:
 2231 00b9 06        		.byte	6
 2232 00ba 31        		.byte	49
 2233 00bb FF        		.byte	-1
 2234 00bc 09        		.byte	9
 2235 00bd 74        		.byte	116
 2236 00be A1        		.byte	-95
 2237 00bf 53        		.byte	83
 2238 00c0 75        		.byte	117
 2239 00c1 08        		.byte	8
 2240 00c2 15        		.byte	21
 2241 00c3 00        		.byte	0
 2242 00c4 26        		.byte	38
 2243 00c5 FF        		.byte	-1
 2244 00c6 00        		.byte	0
 2245 00c7 95        		.byte	-107
 2246 00c8 20        		.byte	32
 2247 00c9 09        		.byte	9
 2248 00ca 75        		.byte	117
 2249 00cb 81        		.byte	-127
 2250 00cc 02        		.byte	2
 2251 00cd C0        		.byte	-64
 2254               	string0:
 2255 00ce 04        		.byte	4
 2256 00cf 03        		.byte	3
 2257 00d0 0904      		.word	1033
 2260               	string1:
 2261 00d2 10        		.byte	16
 2262 00d3 03        		.byte	3
 2263 00d4 4D00      		.string	"M"
 2264 00d6 6600      		.string	"f"
 2265 00d8 6700      		.string	"g"
 2266 00da 4E00      		.string	"N"
 2267 00dc 6100      		.string	"a"
 2268 00de 6D00      		.string	"m"
 2269 00e0 6500      		.string	"e"
 2270 00e2 00        		.string	""
 2271 00e3 00        		.string	""
 2274               	string2:
 2275 00e4 2E        		.byte	46
 2276 00e5 03        		.byte	3
 2277 00e6 5400      		.string	"T"
 2278 00e8 6500      		.string	"e"
 2279 00ea 6500      		.string	"e"
 2280 00ec 6E00      		.string	"n"
 2281 00ee 7300      		.string	"s"
 2282 00f0 7900      		.string	"y"
 2283 00f2 2000      		.string	" "
 2284 00f4 5200      		.string	"R"
 2285 00f6 6100      		.string	"a"
 2286 00f8 7700      		.string	"w"
 2287 00fa 2000      		.string	" "
 2288 00fc 4800      		.string	"H"
 2289 00fe 4900      		.string	"I"
 2290 0100 4400      		.string	"D"
 2291 0102 2000      		.string	" "
 2292 0104 4500      		.string	"E"
 2293 0106 7800      		.string	"x"
 2294 0108 6100      		.string	"a"
 2295 010a 6D00      		.string	"m"
 2296 010c 7000      		.string	"p"
 2297 010e 6C00      		.string	"l"
 2298 0110 6500      		.string	"e"
 2299 0112 00        		.string	""
 2300 0113 00        		.string	""
 2381               	.Letext0:
DEFINED SYMBOLS
                            *ABS*:00000000 usb_rawhid_debug.c
C:\Users\Scott\AppData\Local\Temp/ccArXXak.s:2      *ABS*:0000003f __SREG__
C:\Users\Scott\AppData\Local\Temp/ccArXXak.s:3      *ABS*:0000003e __SP_H__
C:\Users\Scott\AppData\Local\Temp/ccArXXak.s:4      *ABS*:0000003d __SP_L__
C:\Users\Scott\AppData\Local\Temp/ccArXXak.s:5      *ABS*:00000034 __CCP__
C:\Users\Scott\AppData\Local\Temp/ccArXXak.s:6      *ABS*:00000000 __tmp_reg__
C:\Users\Scott\AppData\Local\Temp/ccArXXak.s:7      *ABS*:00000001 __zero_reg__
C:\Users\Scott\AppData\Local\Temp/ccArXXak.s:19     .text.usb_init:00000000 usb_init
                             .bss:00000000 usb_configuration
C:\Users\Scott\AppData\Local\Temp/ccArXXak.s:62     .text.usb_configured:00000000 usb_configured
C:\Users\Scott\AppData\Local\Temp/ccArXXak.s:77     .text.usb_rawhid_recv:00000000 usb_rawhid_recv
C:\Users\Scott\AppData\Local\Temp/ccArXXak.s:2103   .bss:00000002 rx_timeout_count
C:\Users\Scott\AppData\Local\Temp/ccArXXak.s:557    .text.usb_rawhid_send:00000000 usb_rawhid_send
C:\Users\Scott\AppData\Local\Temp/ccArXXak.s:2104   .bss:00000003 tx_timeout_count
C:\Users\Scott\AppData\Local\Temp/ccArXXak.s:1037   .text.usb_debug_putchar:00000000 usb_debug_putchar
C:\Users\Scott\AppData\Local\Temp/ccArXXak.s:2105   .bss:00000004 previous_timeout.1484
C:\Users\Scott\AppData\Local\Temp/ccArXXak.s:2089   .bss:00000001 debug_flush_timer
C:\Users\Scott\AppData\Local\Temp/ccArXXak.s:1148   .text.usb_debug_flush_output:00000000 usb_debug_flush_output
C:\Users\Scott\AppData\Local\Temp/ccArXXak.s:1194   .text.__vector_10:00000000 __vector_10
C:\Users\Scott\AppData\Local\Temp/ccArXXak.s:1302   .text.__vector_11:00000000 __vector_11
C:\Users\Scott\AppData\Local\Temp/ccArXXak.s:2052   .progmem.data:00000000 descriptor_list
C:\Users\Scott\AppData\Local\Temp/ccArXXak.s:2092   .progmem.data:0000003f endpoint_config_table
C:\Users\Scott\AppData\Local\Temp/ccArXXak.s:2109   .progmem.data:00000049 device_descriptor
C:\Users\Scott\AppData\Local\Temp/ccArXXak.s:2130   .progmem.data:0000005b config1_descriptor
C:\Users\Scott\AppData\Local\Temp/ccArXXak.s:2199   .progmem.data:0000009d rawhid_hid_report_desc
C:\Users\Scott\AppData\Local\Temp/ccArXXak.s:2230   .progmem.data:000000b9 debug_hid_report_desc
C:\Users\Scott\AppData\Local\Temp/ccArXXak.s:2254   .progmem.data:000000ce string0
C:\Users\Scott\AppData\Local\Temp/ccArXXak.s:2260   .progmem.data:000000d2 string1
C:\Users\Scott\AppData\Local\Temp/ccArXXak.s:2274   .progmem.data:000000e4 string2

UNDEFINED SYMBOLS
__do_clear_bss
